target datalayout = "e-m:e-p270:32:32-p271:32:32-p272:64:64-i64:64-i128:128-f80:128-n8:16:32:64-S128"
target triple = "x86_64-pc-linux-gnu"

%struct.EState = type { i32, i32, ptr, ptr, ptr, i32, ptr, ptr, ptr, ptr, ptr, ptr, ptr, ptr, ptr, ptr, i32, ptr, ptr, ptr, ptr, ptr, ptr, ptr, ptr, ptr, ptr, i64, i64, i32, i32, i8, ptr, ptr, ptr, ptr, ptr, i8, i32, i32, ptr, i32, ptr, ptr, ptr, ptr }
%struct.PlanState = type { i32, ptr, ptr, ptr, ptr, ptr, ptr, ptr, ptr, ptr, ptr, ptr, ptr, ptr, ptr, ptr, ptr, ptr, i8, ptr, ptr, ptr, ptr, ptr, i8, i8, i8, i8, i8, i8, i8, i8 }
%struct.SharedExecutorInstrumentation = type { i32, i32, i32, i32, [0 x i32] }
%struct.Instrumentation = type { i8, i8, i8, i8, i8, %struct.instr_time, %struct.instr_time, double, double, %struct.BufferUsage, %struct.WalUsage, double, double, double, double, double, double, double, %struct.BufferUsage, %struct.WalUsage }
%struct.instr_time = type { i64 }
%struct.BufferUsage = type { i64, i64, i64, i64, i64, i64, i64, i64, i64, i64, %struct.instr_time, %struct.instr_time, %struct.instr_time, %struct.instr_time, %struct.instr_time, %struct.instr_time }
%struct.WalUsage = type { i64, i64, i64, i64 }
%struct.Plan = type { i32, i32, double, double, double, i32, i8, i8, i8, i32, ptr, ptr, ptr, ptr, ptr, ptr, ptr }
%struct.Node = type { i32 }
%struct.WorkerInstrumentation = type { i32, [0 x %struct.Instrumentation] }

@.str.3 = private unnamed_addr constant [15 x i8] c"execParallel.c\00", align 1
@.str.4 = private unnamed_addr constant [23 x i8] c"plan node %d not found\00", align 1
@__func__.ExecParallelRetrieveInstrumentation = private unnamed_addr constant [36 x i8] c"ExecParallelRetrieveInstrumentation\00", align 1
@CurrentMemoryContext = external global ptr, align 8

; Function Attrs: inlinehint nounwind uwtable
define internal ptr @MemoryContextSwitchTo(ptr noundef %0) #7 {
  %2 = alloca ptr, align 8
  %3 = alloca ptr, align 8
  store ptr %0, ptr %2, align 8
  call void @llvm.lifetime.start.p0(i64 8, ptr %3) #8
  %4 = load ptr, ptr @CurrentMemoryContext, align 8
  store ptr %4, ptr %3, align 8
  %5 = load ptr, ptr %2, align 8
  store ptr %5, ptr @CurrentMemoryContext, align 8
  %6 = load ptr, ptr %3, align 8
  call void @llvm.lifetime.end.p0(i64 8, ptr %3) #8
  ret ptr %6
}

; Function Attrs: nounwind uwtable
define internal zeroext i1 @ExecParallelRetrieveInstrumentation(ptr noundef %0, ptr noundef %1) #0 {
  %3 = alloca ptr, align 8
  %4 = alloca ptr, align 8
  %5 = alloca ptr, align 8
  %6 = alloca i32, align 4
  %7 = alloca i32, align 4
  %8 = alloca i32, align 4
  %9 = alloca i32, align 4
  %10 = alloca ptr, align 8
  %11 = alloca i32, align 4
  store ptr %0, ptr %3, align 8
  store ptr %1, ptr %4, align 8
  call void @llvm.lifetime.start.p0(i64 8, ptr %5) #8
  call void @llvm.lifetime.start.p0(i64 4, ptr %6) #8
  call void @llvm.lifetime.start.p0(i64 4, ptr %7) #8
  call void @llvm.lifetime.start.p0(i64 4, ptr %8) #8
  call void @llvm.lifetime.start.p0(i64 4, ptr %9) #8
  %12 = load ptr, ptr %3, align 8
  %13 = getelementptr inbounds nuw %struct.PlanState, ptr %12, i32 0, i32 1
  %14 = load ptr, ptr %13, align 8
  %15 = getelementptr inbounds nuw %struct.Plan, ptr %14, i32 0, i32 9
  %16 = load i32, ptr %15, align 8
  store i32 %16, ptr %9, align 4
  call void @llvm.lifetime.start.p0(i64 8, ptr %10) #8
  store i32 0, ptr %6, align 4
  br label %17

17:                                               ; preds = %34, %2
  %18 = load i32, ptr %6, align 4
  %19 = load ptr, ptr %4, align 8
  %20 = getelementptr inbounds nuw %struct.SharedExecutorInstrumentation, ptr %19, i32 0, i32 3
  %21 = load i32, ptr %20, align 4
  %22 = icmp slt i32 %18, %21
  br i1 %22, label %23, label %37

23:                                               ; preds = %17
  %24 = load ptr, ptr %4, align 8
  %25 = getelementptr inbounds nuw %struct.SharedExecutorInstrumentation, ptr %24, i32 0, i32 4
  %26 = load i32, ptr %6, align 4
  %27 = sext i32 %26 to i64
  %28 = getelementptr inbounds [0 x i32], ptr %25, i64 0, i64 %27
  %29 = load i32, ptr %28, align 4
  %30 = load i32, ptr %9, align 4
  %31 = icmp eq i32 %29, %30
  br i1 %31, label %32, label %33

32:                                               ; preds = %23
  br label %37

33:                                               ; preds = %23
  br label %34

34:                                               ; preds = %33
  %35 = load i32, ptr %6, align 4
  %36 = add i32 %35, 1
  store i32 %36, ptr %6, align 4
  br label %17, !llvm.loop !16

37:                                               ; preds = %32, %17
  %38 = load i32, ptr %6, align 4
  %39 = load ptr, ptr %4, align 8
  %40 = getelementptr inbounds nuw %struct.SharedExecutorInstrumentation, ptr %39, i32 0, i32 3
  %41 = load i32, ptr %40, align 4
  %42 = icmp sge i32 %38, %41
  br i1 %42, label %43, label %55

43:                                               ; preds = %37
  br label %44

44:                                               ; preds = %43
  br i1 true, label %45, label %47

45:                                               ; preds = %44
  %46 = call zeroext i1 @errstart_cold(i32 noundef 21, ptr noundef null) #10
  br i1 %46, label %49, label %52

47:                                               ; preds = %44
  %48 = call zeroext i1 @errstart(i32 noundef 21, ptr noundef null)
  br i1 %48, label %49, label %52

49:                                               ; preds = %47, %45
  %50 = load i32, ptr %9, align 4
  %51 = call i32 (ptr, ...) @errmsg_internal(ptr noundef @.str.4, i32 noundef %50)
  call void @errfinish(ptr noundef @.str.3, i32 noundef 1039, ptr noundef @__func__.ExecParallelRetrieveInstrumentation)
  br label %52

52:                                               ; preds = %49, %47, %45
  unreachable

53:                                               ; No predecessors!
  br label %54

54:                                               ; preds = %53
  br label %55

55:                                               ; preds = %54, %37
  br label %56

56:                                               ; preds = %55
  br label %57

57:                                               ; preds = %56
  br label %58

58:                                               ; preds = %57
  store i32 1, ptr %11, align 4
  %59 = load ptr, ptr %4, align 8
  %60 = load ptr, ptr %4, align 8
  %61 = getelementptr inbounds nuw %struct.SharedExecutorInstrumentation, ptr %60, i32 0, i32 1
  %62 = load i32, ptr %61, align 4
  %63 = sext i32 %62 to i64
  %64 = getelementptr inbounds i8, ptr %59, i64 %63
  store ptr %64, ptr %5, align 8
  %65 = load i32, ptr %6, align 4
  %66 = load ptr, ptr %4, align 8
  %67 = getelementptr inbounds nuw %struct.SharedExecutorInstrumentation, ptr %66, i32 0, i32 2
  %68 = load i32, ptr %67, align 4
  %69 = mul i32 %65, %68
  %70 = load ptr, ptr %5, align 8
  %71 = sext i32 %69 to i64
  %72 = getelementptr inbounds %struct.Instrumentation, ptr %70, i64 %71
  store ptr %72, ptr %5, align 8
  store i32 0, ptr %7, align 4
  br label %73

73:                                               ; preds = %87, %58
  %74 = load i32, ptr %7, align 4
  %75 = load ptr, ptr %4, align 8
  %76 = getelementptr inbounds nuw %struct.SharedExecutorInstrumentation, ptr %75, i32 0, i32 2
  %77 = load i32, ptr %76, align 4
  %78 = icmp slt i32 %74, %77
  br i1 %78, label %79, label %90

79:                                               ; preds = %73
  %80 = load ptr, ptr %3, align 8
  %81 = getelementptr inbounds nuw %struct.PlanState, ptr %80, i32 0, i32 5
  %82 = load ptr, ptr %81, align 8
  %83 = load ptr, ptr %5, align 8
  %84 = load i32, ptr %7, align 4
  %85 = sext i32 %84 to i64
  %86 = getelementptr inbounds %struct.Instrumentation, ptr %83, i64 %85
  call void @InstrAggNode(ptr noundef %82, ptr noundef %86)
  br label %87

87:                                               ; preds = %79
  %88 = load i32, ptr %7, align 4
  %89 = add i32 %88, 1
  store i32 %89, ptr %7, align 4
  br label %73, !llvm.loop !17

90:                                               ; preds = %73
  %91 = load ptr, ptr %3, align 8
  %92 = getelementptr inbounds nuw %struct.PlanState, ptr %91, i32 0, i32 2
  %93 = load ptr, ptr %92, align 8
  %94 = getelementptr inbounds nuw %struct.EState, ptr %93, i32 0, i32 25
  %95 = load ptr, ptr %94, align 8
  %96 = call ptr @MemoryContextSwitchTo(ptr noundef %95)
  store ptr %96, ptr %10, align 8
  %97 = load ptr, ptr %4, align 8
  %98 = getelementptr inbounds nuw %struct.SharedExecutorInstrumentation, ptr %97, i32 0, i32 2
  %99 = load i32, ptr %98, align 4
  %100 = sext i32 %99 to i64
  %101 = call i64 @mul_size(i64 noundef %100, i64 noundef 416)
  %102 = trunc i64 %101 to i32
  store i32 %102, ptr %8, align 4
  %103 = load i32, ptr %8, align 4
  %104 = sext i32 %103 to i64
  %105 = add i64 %104, 8
  %106 = call ptr @palloc(i64 noundef %105)
  %107 = load ptr, ptr %3, align 8
  %108 = getelementptr inbounds nuw %struct.PlanState, ptr %107, i32 0, i32 6
  store ptr %106, ptr %108, align 8
  %109 = load ptr, ptr %10, align 8
  %110 = call ptr @MemoryContextSwitchTo(ptr noundef %109)
  %111 = load ptr, ptr %4, align 8
  %112 = getelementptr inbounds nuw %struct.SharedExecutorInstrumentation, ptr %111, i32 0, i32 2
  %113 = load i32, ptr %112, align 4
  %114 = load ptr, ptr %3, align 8
  %115 = getelementptr inbounds nuw %struct.PlanState, ptr %114, i32 0, i32 6
  %116 = load ptr, ptr %115, align 8
  %117 = getelementptr inbounds nuw %struct.WorkerInstrumentation, ptr %116, i32 0, i32 0
  store i32 %113, ptr %117, align 8
  %118 = load ptr, ptr %3, align 8
  %119 = getelementptr inbounds nuw %struct.PlanState, ptr %118, i32 0, i32 6
  %120 = load ptr, ptr %119, align 8
  %121 = getelementptr inbounds nuw %struct.WorkerInstrumentation, ptr %120, i32 0, i32 1
  %122 = load ptr, ptr %5, align 8
  %123 = load i32, ptr %8, align 4
  %124 = sext i32 %123 to i64
  call void @llvm.memcpy.p0.p0.i64(ptr align 8 %121, ptr align 8 %122, i64 %124, i1 false)
  %125 = load ptr, ptr %3, align 8
  %126 = getelementptr inbounds nuw %struct.Node, ptr %125, i32 0, i32 0
  %127 = load i32, ptr %126, align 4
  switch i32 %127, label %140 [
    i32 425, label %128
    i32 426, label %130
    i32 433, label %132
    i32 428, label %134
    i32 424, label %136
    i32 407, label %138
  ]

128:                                              ; preds = %90
  %129 = load ptr, ptr %3, align 8
  call void @ExecSortRetrieveInstrumentation(ptr noundef %129)
  br label %141

130:                                              ; preds = %90
  %131 = load ptr, ptr %3, align 8
  call void @ExecIncrementalSortRetrieveInstrumentation(ptr noundef %131)
  br label %141

132:                                              ; preds = %90
  %133 = load ptr, ptr %3, align 8
  call void @ExecHashRetrieveInstrumentation(ptr noundef %133)
  br label %141

134:                                              ; preds = %90
  %135 = load ptr, ptr %3, align 8
  call void @ExecAggRetrieveInstrumentation(ptr noundef %135)
  br label %141

136:                                              ; preds = %90
  %137 = load ptr, ptr %3, align 8
  call void @ExecMemoizeRetrieveInstrumentation(ptr noundef %137)
  br label %141

138:                                              ; preds = %90
  %139 = load ptr, ptr %3, align 8
  call void @ExecBitmapHeapRetrieveInstrumentation(ptr noundef %139)
  br label %141

140:                                              ; preds = %90
  br label %141

141:                                              ; preds = %140, %138, %136, %134, %132, %130, %128
  %142 = load ptr, ptr %3, align 8
  %143 = load ptr, ptr %4, align 8
  %144 = call zeroext i1 @planstate_tree_walker_impl(ptr noundef %142, ptr noundef @ExecParallelRetrieveInstrumentation, ptr noundef %143)
  call void @llvm.lifetime.end.p0(i64 8, ptr %10) #8
  call void @llvm.lifetime.end.p0(i64 4, ptr %9) #8
  call void @llvm.lifetime.end.p0(i64 4, ptr %8) #8
  call void @llvm.lifetime.end.p0(i64 4, ptr %7) #8
  call void @llvm.lifetime.end.p0(i64 4, ptr %6) #8
  call void @llvm.lifetime.end.p0(i64 8, ptr %5) #8
  ret i1 %144
}