; Function Attrs: nounwind uwtable
define internal zeroext i1 @ExecParallelRetrieveInstrumentation(ptr noundef %0, ptr noundef %1) #0 {
  %3 = getelementptr inbounds nuw i8, ptr %0, i64 8
  %4 = load ptr, ptr %3, align 8
  %5 = getelementptr inbounds nuw i8, ptr %4, i64 40
  %6 = load i32, ptr %5, align 8
  %7 = getelementptr inbounds nuw i8, ptr %1, i64 12
  %8 = load i32, ptr %7, align 4
  %9 = icmp sgt i32 %8, 0
  br i1 %9, label %.lr.ph, label %._crit_edge

.lr.ph:                                           ; preds = %2
  %10 = getelementptr inbounds nuw i8, ptr %1, i64 16
  %wide.trip.count = zext nneg i32 %8 to i64
  br label %11

11:                                               ; preds = %.lr.ph, %15
  %indvars.iv = phi i64 [ 0, %.lr.ph ], [ %indvars.iv.next, %15 ]
  %12 = getelementptr inbounds nuw [0 x i32], ptr %10, i64 0, i64 %indvars.iv
  %13 = load i32, ptr %12, align 4
  %14 = icmp eq i32 %13, %6
  br i1 %14, label %18, label %15

15:                                               ; preds = %11
  %indvars.iv.next = add nuw nsw i64 %indvars.iv, 1
  %exitcond.not = icmp eq i64 %indvars.iv.next, %wide.trip.count
  br i1 %exitcond.not, label %._crit_edge, label %11, !llvm.loop !16

._crit_edge:                                      ; preds = %15, %2
  %16 = tail call zeroext i1 @errstart_cold(i32 noundef 21, ptr noundef null) #11
  tail call void @llvm.assume(i1 %16)
  %17 = tail call i32 (ptr, ...) @errmsg_internal(ptr noundef nonnull @.str.4, i32 noundef %6) #9
  tail call void @errfinish(ptr noundef nonnull @.str.3, i32 noundef 1039, ptr noundef nonnull @__func__.ExecParallelRetrieveInstrumentation) #9
  unreachable

18:                                               ; preds = %11
  %19 = trunc nuw nsw i64 %indvars.iv to i32
  %20 = getelementptr inbounds nuw i8, ptr %1, i64 4
  %21 = load i32, ptr %20, align 4
  %22 = sext i32 %21 to i64
  %23 = getelementptr inbounds i8, ptr %1, i64 %22
  %24 = getelementptr inbounds nuw i8, ptr %1, i64 8
  %25 = load i32, ptr %24, align 4
  %26 = mul i32 %25, %19
  %27 = sext i32 %26 to i64
  %28 = getelementptr inbounds %struct.Instrumentation, ptr %23, i64 %27
  %29 = icmp sgt i32 %25, 0
  br i1 %29, label %.lr.ph44, label %.._crit_edge45_crit_edge

.._crit_edge45_crit_edge:                         ; preds = %18
  %.pre = sext i32 %25 to i64
  br label %._crit_edge45

.lr.ph44:                                         ; preds = %18
  %30 = getelementptr inbounds nuw i8, ptr %0, i64 40
  br label %31

31:                                               ; preds = %.lr.ph44, %31
  %indvars.iv49 = phi i64 [ 0, %.lr.ph44 ], [ %indvars.iv.next50, %31 ]
  %32 = load ptr, ptr %30, align 8
  %33 = getelementptr inbounds nuw %struct.Instrumentation, ptr %28, i64 %indvars.iv49
  tail call void @InstrAggNode(ptr noundef %32, ptr noundef %33) #9
  %indvars.iv.next50 = add nuw nsw i64 %indvars.iv49, 1
  %34 = load i32, ptr %24, align 4
  %35 = sext i32 %34 to i64
  %36 = icmp slt i64 %indvars.iv.next50, %35
  br i1 %36, label %31, label %._crit_edge45, !llvm.loop !17

._crit_edge45:                                    ; preds = %31, %.._crit_edge45_crit_edge
  %.pre-phi = phi i64 [ %.pre, %.._crit_edge45_crit_edge ], [ %35, %31 ]
  %37 = getelementptr inbounds nuw i8, ptr %0, i64 16
  %38 = load ptr, ptr %37, align 8
  %39 = getelementptr inbounds nuw i8, ptr %38, i64 192
  %40 = load ptr, ptr %39, align 8
  %41 = load ptr, ptr @CurrentMemoryContext, align 8
  store ptr %40, ptr @CurrentMemoryContext, align 8
  %42 = tail call i64 @mul_size(i64 noundef %.pre-phi, i64 noundef 416) #9
  %sext = shl i64 %42, 32
  %43 = ashr exact i64 %sext, 32
  %44 = add nsw i64 %43, 8
  %45 = tail call ptr @palloc(i64 noundef %44) #9
  %46 = getelementptr inbounds nuw i8, ptr %0, i64 48
  store ptr %45, ptr %46, align 8
  store ptr %41, ptr @CurrentMemoryContext, align 8
  %47 = load i32, ptr %24, align 4
  store i32 %47, ptr %45, align 8
  %48 = load ptr, ptr %46, align 8
  %49 = getelementptr inbounds nuw i8, ptr %48, i64 8
  tail call void @llvm.memcpy.p0.p0.i64(ptr nonnull align 8 %49, ptr nonnull align 8 %28, i64 %43, i1 false)
  %50 = load i32, ptr %0, align 4
  switch i32 %50, label %57 [
    i32 425, label %51
    i32 426, label %52
    i32 433, label %53
    i32 428, label %54
    i32 424, label %55
    i32 407, label %56
  ]

51:                                               ; preds = %._crit_edge45
  tail call void @ExecSortRetrieveInstrumentation(ptr noundef nonnull %0) #9
  br label %57

52:                                               ; preds = %._crit_edge45
  tail call void @ExecIncrementalSortRetrieveInstrumentation(ptr noundef nonnull %0) #9
  br label %57

53:                                               ; preds = %._crit_edge45
  tail call void @ExecHashRetrieveInstrumentation(ptr noundef nonnull %0) #9
  br label %57

54:                                               ; preds = %._crit_edge45
  tail call void @ExecAggRetrieveInstrumentation(ptr noundef nonnull %0) #9
  br label %57

55:                                               ; preds = %._crit_edge45
  tail call void @ExecMemoizeRetrieveInstrumentation(ptr noundef nonnull %0) #9
  br label %57

56:                                               ; preds = %._crit_edge45
  tail call void @ExecBitmapHeapRetrieveInstrumentation(ptr noundef nonnull %0) #9
  br label %57

57:                                               ; preds = %._crit_edge45, %56, %55, %54, %53, %52, %51
  %58 = tail call zeroext i1 @planstate_tree_walker_impl(ptr noundef nonnull %0, ptr noundef nonnull @ExecParallelRetrieveInstrumentation, ptr noundef nonnull %1) #9
  ret i1 %58
}